; ModuleID = '12/1123.c'
source_filename = "12/1123.c"
target datalayout = "e-m:e-p270:32:32-p271:32:32-p272:64:64-i64:64-f80:128-n8:16:32:64-S128"
target triple = "x86_64-pc-linux-gnu"

@.str = private unnamed_addr constant [3 x i8] c"%d\00", align 1
@.str.1 = private unnamed_addr constant [4 x i8] c"%d\0A\00", align 1

; Function Attrs: noinline nounwind uwtable
define dso_local i32 @main() #0 {
  %1 = alloca i32, align 4
  %2 = alloca [100 x i32], align 16
  %3 = alloca i32, align 4
  %4 = alloca i32, align 4
  %5 = alloca i32, align 4
  %6 = alloca i32, align 4
  %7 = alloca i32, align 4
  %8 = alloca i32, align 4
  %9 = alloca [17 x i32], align 16
  %10 = alloca [17 x i32], align 16
  store i32 0, i32* %1, align 4
  store i32 0, i32* %3, align 4
  br label %11

11:                                               ; preds = %92, %0
  store i32 0, i32* %8, align 4
  %12 = getelementptr inbounds [17 x i32], [17 x i32]* %9, i64 0, i64 0
  %13 = call i32 (i8*, ...) @__isoc99_scanf(i8* getelementptr inbounds ([3 x i8], [3 x i8]* @.str, i64 0, i64 0), i32* %12)
  %14 = getelementptr inbounds [17 x i32], [17 x i32]* %9, i64 0, i64 0
  %15 = load i32, i32* %14, align 16
  %16 = mul nsw i32 2, %15
  %17 = getelementptr inbounds [17 x i32], [17 x i32]* %10, i64 0, i64 0
  store i32 %16, i32* %17, align 16
  %18 = getelementptr inbounds [17 x i32], [17 x i32]* %9, i64 0, i64 0
  %19 = load i32, i32* %18, align 16
  %20 = icmp eq i32 %19, -1
  br i1 %20, label %21, label %22

21:                                               ; preds = %11
  br label %95

22:                                               ; preds = %11
  store i32 1, i32* %5, align 4
  br label %23

23:                                               ; preds = %50, %22
  %24 = load i32, i32* %5, align 4
  %25 = sub nsw i32 %24, 1
  %26 = sext i32 %25 to i64
  %27 = getelementptr inbounds [17 x i32], [17 x i32]* %9, i64 0, i64 %26
  %28 = load i32, i32* %27, align 4
  %29 = icmp ne i32 %28, 0
  br i1 %29, label %30, label %53

30:                                               ; preds = %23
  %31 = load i32, i32* %5, align 4
  %32 = sext i32 %31 to i64
  %33 = getelementptr inbounds [17 x i32], [17 x i32]* %9, i64 0, i64 %32
  %34 = call i32 (i8*, ...) @__isoc99_scanf(i8* getelementptr inbounds ([3 x i8], [3 x i8]* @.str, i64 0, i64 0), i32* %33)
  %35 = load i32, i32* %5, align 4
  %36 = sext i32 %35 to i64
  %37 = getelementptr inbounds [17 x i32], [17 x i32]* %9, i64 0, i64 %36
  %38 = load i32, i32* %37, align 4
  %39 = icmp eq i32 %38, -1
  br i1 %39, label %40, label %41

40:                                               ; preds = %30
  br label %95

41:                                               ; preds = %30
  %42 = load i32, i32* %5, align 4
  %43 = sext i32 %42 to i64
  %44 = getelementptr inbounds [17 x i32], [17 x i32]* %9, i64 0, i64 %43
  %45 = load i32, i32* %44, align 4
  %46 = mul nsw i32 2, %45
  %47 = load i32, i32* %5, align 4
  %48 = sext i32 %47 to i64
  %49 = getelementptr inbounds [17 x i32], [17 x i32]* %10, i64 0, i64 %48
  store i32 %46, i32* %49, align 4
  br label %50

50:                                               ; preds = %41
  %51 = load i32, i32* %5, align 4
  %52 = add nsw i32 %51, 1
  store i32 %52, i32* %5, align 4
  br label %23

53:                                               ; preds = %23
  store i32 0, i32* %6, align 4
  br label %54

54:                                               ; preds = %87, %53
  %55 = load i32, i32* %6, align 4
  %56 = load i32, i32* %5, align 4
  %57 = sub nsw i32 %56, 1
  %58 = icmp slt i32 %55, %57
  br i1 %58, label %59, label %90

59:                                               ; preds = %54
  store i32 0, i32* %7, align 4
  br label %60

60:                                               ; preds = %79, %59
  %61 = load i32, i32* %7, align 4
  %62 = load i32, i32* %5, align 4
  %63 = sub nsw i32 %62, 1
  %64 = icmp slt i32 %61, %63
  br i1 %64, label %65, label %82

65:                                               ; preds = %60
  %66 = load i32, i32* %7, align 4
  %67 = sext i32 %66 to i64
  %68 = getelementptr inbounds [17 x i32], [17 x i32]* %10, i64 0, i64 %67
  %69 = load i32, i32* %68, align 4
  %70 = load i32, i32* %6, align 4
  %71 = sext i32 %70 to i64
  %72 = getelementptr inbounds [17 x i32], [17 x i32]* %9, i64 0, i64 %71
  %73 = load i32, i32* %72, align 4
  %74 = icmp eq i32 %69, %73
  br i1 %74, label %75, label %78

75:                                               ; preds = %65
  %76 = load i32, i32* %8, align 4
  %77 = add nsw i32 %76, 1
  store i32 %77, i32* %8, align 4
  br label %78

78:                                               ; preds = %75, %65
  br label %79

79:                                               ; preds = %78
  %80 = load i32, i32* %7, align 4
  %81 = add nsw i32 %80, 1
  store i32 %81, i32* %7, align 4
  br label %60

82:                                               ; preds = %60
  %83 = load i32, i32* %8, align 4
  %84 = load i32, i32* %3, align 4
  %85 = sext i32 %84 to i64
  %86 = getelementptr inbounds [100 x i32], [100 x i32]* %2, i64 0, i64 %85
  store i32 %83, i32* %86, align 4
  br label %87

87:                                               ; preds = %82
  %88 = load i32, i32* %6, align 4
  %89 = add nsw i32 %88, 1
  store i32 %89, i32* %6, align 4
  br label %54

90:                                               ; preds = %54
  br label %91

91:                                               ; preds = %90
  br label %92

92:                                               ; preds = %91
  %93 = load i32, i32* %3, align 4
  %94 = add nsw i32 %93, 1
  store i32 %94, i32* %3, align 4
  br label %11

95:                                               ; preds = %40, %21
  store i32 0, i32* %4, align 4
  br label %96

96:                                               ; preds = %106, %95
  %97 = load i32, i32* %4, align 4
  %98 = load i32, i32* %3, align 4
  %99 = icmp slt i32 %97, %98
  br i1 %99, label %100, label %109

100:                                              ; preds = %96
  %101 = load i32, i32* %4, align 4
  %102 = sext i32 %101 to i64
  %103 = getelementptr inbounds [100 x i32], [100 x i32]* %2, i64 0, i64 %102
  %104 = load i32, i32* %103, align 4
  %105 = call i32 (i8*, ...) @printf(i8* getelementptr inbounds ([4 x i8], [4 x i8]* @.str.1, i64 0, i64 0), i32 %104)
  br label %106

106:                                              ; preds = %100
  %107 = load i32, i32* %4, align 4
  %108 = add nsw i32 %107, 1
  store i32 %108, i32* %4, align 4
  br label %96

109:                                              ; preds = %96
  %110 = load i32, i32* %1, align 4
  ret i32 %110
}

declare dso_local i32 @__isoc99_scanf(i8*, ...) #1

declare dso_local i32 @printf(i8*, ...) #1


!llvm.module.flags = !{!0}
!llvm.ident = !{!1}

!0 = !{i32 1, !"wchar_size", i32 4}
!1 = !{!"clang version 10.0.0-4ubuntu1 "}
